target datalayout = "e-m:e-p270:32:32-p271:32:32-p272:64:64-i64:64-i128:128-f80:128-n8:16:32:64-S128"
target triple = "x86_64-pc-linux-gnu"

%struct.wpacket_st = type { ptr, ptr, i64, i64, i64, ptr, i8 }
%struct.wpacket_sub = type { ptr, i64, i64, i64, i32 }

; Function Attrs: nounwind uwtable
define internal i64 @maxmaxsize(i64 noundef %0) #0 {
  %2 = alloca i64, align 8
  %3 = alloca i64, align 8
  store i64 %0, ptr %3, align 8, !tbaa !9
  %4 = load i64, ptr %3, align 8, !tbaa !9
  %5 = icmp uge i64 %4, 8
  br i1 %5, label %9, label %6

6:                                                ; preds = %1
  %7 = load i64, ptr %3, align 8, !tbaa !9
  %8 = icmp eq i64 %7, 0
  br i1 %8, label %9, label %10

9:                                                ; preds = %6, %1
  store i64 -1, ptr %2, align 8
  br label %17

10:                                               ; preds = %6
  %11 = load i64, ptr %3, align 8, !tbaa !9
  %12 = mul i64 %11, 8
  %13 = shl i64 1, %12
  %14 = sub i64 %13, 1
  %15 = load i64, ptr %3, align 8, !tbaa !9
  %16 = add i64 %14, %15
  store i64 %16, ptr %2, align 8
  br label %17

17:                                               ; preds = %10, %9
  %18 = load i64, ptr %2, align 8
  ret i64 %18
}

; Function Attrs: nounwind uwtable
define dso_local i32 @WPACKET_set_max_size(ptr noundef %0, i64 noundef %1) #0 {
  %3 = alloca i32, align 4
  %4 = alloca ptr, align 8
  %5 = alloca i64, align 8
  %6 = alloca ptr, align 8
  %7 = alloca i64, align 8
  %8 = alloca i32, align 4
  store ptr %0, ptr %4, align 8, !tbaa !4
  store i64 %1, ptr %5, align 8, !tbaa !9
  call void @llvm.lifetime.start.p0(i64 8, ptr %6) #7
  call void @llvm.lifetime.start.p0(i64 8, ptr %7) #7
  %9 = load ptr, ptr %4, align 8, !tbaa !4
  %10 = getelementptr inbounds nuw %struct.wpacket_st, ptr %9, i32 0, i32 5
  %11 = load ptr, ptr %10, align 8, !tbaa !20
  %12 = icmp ne ptr %11, null
  %13 = zext i1 %12 to i32
  %14 = icmp ne i32 %13, 0
  %15 = xor i1 %14, true
  %16 = xor i1 %15, true
  %17 = zext i1 %16 to i32
  %18 = sext i32 %17 to i64
  %19 = call i64 @llvm.expect.i64(i64 %18, i64 1)
  %20 = icmp ne i64 %19, 0
  br i1 %20, label %22, label %21

21:                                               ; preds = %2
  store i32 0, ptr %3, align 4
  store i32 1, ptr %8, align 4
  br label %59

22:                                               ; preds = %2
  %23 = load ptr, ptr %4, align 8, !tbaa !4
  %24 = getelementptr inbounds nuw %struct.wpacket_st, ptr %23, i32 0, i32 5
  %25 = load ptr, ptr %24, align 8, !tbaa !20
  store ptr %25, ptr %6, align 8, !tbaa !26
  br label %26

26:                                               ; preds = %32, %22
  %27 = load ptr, ptr %6, align 8, !tbaa !26
  %28 = getelementptr inbounds nuw %struct.wpacket_sub, ptr %27, i32 0, i32 0
  %29 = load ptr, ptr %28, align 8, !tbaa !27
  %30 = icmp ne ptr %29, null
  br i1 %30, label %31, label %36

31:                                               ; preds = %26
  br label %32

32:                                               ; preds = %31
  %33 = load ptr, ptr %6, align 8, !tbaa !26
  %34 = getelementptr inbounds nuw %struct.wpacket_sub, ptr %33, i32 0, i32 0
  %35 = load ptr, ptr %34, align 8, !tbaa !27
  store ptr %35, ptr %6, align 8, !tbaa !26
  br label %26, !llvm.loop !42

36:                                               ; preds = %26
  %37 = load ptr, ptr %6, align 8, !tbaa !26
  %38 = getelementptr inbounds nuw %struct.wpacket_sub, ptr %37, i32 0, i32 2
  %39 = load i64, ptr %38, align 8, !tbaa !30
  store i64 %39, ptr %7, align 8, !tbaa !9
  %40 = load i64, ptr %7, align 8, !tbaa !9
  %41 = icmp eq i64 %40, 0
  br i1 %41, label %42, label %43

42:                                               ; preds = %36
  store i64 8, ptr %7, align 8, !tbaa !9
  br label %43

43:                                               ; preds = %42, %36
  %44 = load i64, ptr %7, align 8, !tbaa !9
  %45 = call i64 @maxmaxsize(i64 noundef %44)
  %46 = load i64, ptr %5, align 8, !tbaa !9
  %47 = icmp ult i64 %45, %46
  br i1 %47, label %54, label %48

48:                                               ; preds = %43
  %49 = load i64, ptr %5, align 8, !tbaa !9
  %50 = load ptr, ptr %4, align 8, !tbaa !4
  %51 = getelementptr inbounds nuw %struct.wpacket_st, ptr %50, i32 0, i32 3
  %52 = load i64, ptr %51, align 8, !tbaa !13
  %53 = icmp ult i64 %49, %52
  br i1 %53, label %54, label %55

54:                                               ; preds = %48, %43
  store i32 0, ptr %3, align 4
  store i32 1, ptr %8, align 4
  br label %59

55:                                               ; preds = %48
  %56 = load i64, ptr %5, align 8, !tbaa !9
  %57 = load ptr, ptr %4, align 8, !tbaa !4
  %58 = getelementptr inbounds nuw %struct.wpacket_st, ptr %57, i32 0, i32 4
  store i64 %56, ptr %58, align 8, !tbaa !21
  store i32 1, ptr %3, align 4
  store i32 1, ptr %8, align 4
  br label %59

59:                                               ; preds = %55, %54, %21
  call void @llvm.lifetime.end.p0(i64 8, ptr %7) #7
  call void @llvm.lifetime.end.p0(i64 8, ptr %6) #7
  %60 = load i32, ptr %3, align 4
  ret i32 %60
}