; Function Attrs: nofree norecurse nosync nounwind memory(read, argmem: readwrite, inaccessiblemem: none) uwtable
define dso_local range(i32 0, 2) i32 @WPACKET_set_max_size(ptr noundef captures(none) %0, i64 noundef %1) local_unnamed_addr #5 {
  %3 = getelementptr inbounds nuw i8, ptr %0, i64 40
  %4 = load ptr, ptr %3, align 8, !tbaa !4
  %.not = icmp eq ptr %4, null
  br i1 %.not, label %21, label %.preheader, !prof !24

.preheader:                                       ; preds = %2, %.preheader
  %.012 = phi ptr [ %5, %.preheader ], [ %4, %2 ]
  %5 = load ptr, ptr %.012, align 8, !tbaa !25
  %.not16 = icmp eq ptr %5, null
  br i1 %.not16, label %6, label %.preheader, !llvm.loop !37

6:                                                ; preds = %.preheader
  %7 = getelementptr inbounds nuw i8, ptr %.012, i64 16
  %8 = load i64, ptr %7, align 8, !tbaa !28
  %9 = icmp eq i64 %8, 0
  %spec.store.select = select i1 %9, i64 8, i64 %8
  %or.cond.i = icmp ult i64 %spec.store.select, 8
  %10 = shl nuw nsw i64 %spec.store.select, 3
  %notmask.i = shl nsw i64 -1, %10
  %11 = xor i64 %notmask.i, -1
  %12 = add nuw nsw i64 %spec.store.select, %11
  %13 = icmp ult i64 %12, %1
  %14 = select i1 %or.cond.i, i1 %13, i1 false
  br i1 %14, label %21, label %15

15:                                               ; preds = %6
  %16 = getelementptr inbounds nuw i8, ptr %0, i64 24
  %17 = load i64, ptr %16, align 8, !tbaa !16
  %18 = icmp ult i64 %1, %17
  br i1 %18, label %21, label %19

19:                                               ; preds = %15
  %20 = getelementptr inbounds nuw i8, ptr %0, i64 32
  store i64 %1, ptr %20, align 8, !tbaa !15
  br label %21

21:                                               ; preds = %6, %15, %2, %19
  %.0 = phi i32 [ 1, %19 ], [ 0, %2 ], [ 0, %15 ], [ 0, %6 ]
  ret i32 %.0
}